target datalayout = "e-m:e-p270:32:32-p271:32:32-p272:64:64-i64:64-i128:128-f80:128-n8:16:32:64-S128"
target triple = "x86_64-pc-linux-gnu"

%"class.std::basic_string_view" = type { i64, ptr }
%"class.llvm::itanium_demangle::Node" = type <{ ptr, i8, i16, [5 x i8] }>
%"struct.llvm::ItaniumPartialDemangler" = type { ptr, ptr }
%"struct.llvm::itanium_demangle::AbiTagAttr" = type { %"class.llvm::itanium_demangle::Node.base", ptr, %"class.std::basic_string_view" }
%"class.llvm::itanium_demangle::Node.base" = type <{ ptr, i8, i16 }>
%"struct.llvm::itanium_demangle::ModuleEntity" = type { %"class.llvm::itanium_demangle::Node.base", ptr, ptr }
%"struct.llvm::itanium_demangle::NestedName" = type { %"class.llvm::itanium_demangle::Node.base", ptr, ptr }
%"struct.llvm::itanium_demangle::LocalName" = type { %"class.llvm::itanium_demangle::Node.base", ptr, ptr }
%"struct.llvm::itanium_demangle::NameWithTemplateArgs" = type { %"class.llvm::itanium_demangle::Node.base", ptr, ptr }
%"class.llvm::itanium_demangle::FunctionEncoding" = type <{ %"class.llvm::itanium_demangle::Node.base", [5 x i8], ptr, ptr, %"class.llvm::itanium_demangle::NodeArray", ptr, ptr, i32, i8, [3 x i8] }>
%"class.llvm::itanium_demangle::NodeArray" = type { ptr, i64 }

; Function Attrs: mustprogress nounwind uwtable
define linkonce_odr hidden noundef ptr @_ZNK4llvm16itanium_demangle16FunctionEncoding7getNameEv(ptr noundef nonnull align 8 dereferenceable(72) %0) #0 comdat align 2 {
  %2 = alloca ptr, align 8
  store ptr %0, ptr %2, align 8
  %3 = load ptr, ptr %2, align 8
  %4 = getelementptr inbounds nuw %"class.llvm::itanium_demangle::FunctionEncoding", ptr %3, i32 0, i32 3
  %5 = load ptr, ptr %4, align 8
  ret ptr %5
}

; Function Attrs: mustprogress nounwind uwtable
define linkonce_odr hidden noundef zeroext i8 @_ZNK4llvm16itanium_demangle4Node7getKindEv(ptr noundef nonnull align 8 dereferenceable(11) %0) #0 comdat align 2 {
  %2 = alloca ptr, align 8
  store ptr %0, ptr %2, align 8
  %3 = load ptr, ptr %2, align 8
  %4 = getelementptr inbounds nuw %"class.llvm::itanium_demangle::Node", ptr %3, i32 0, i32 1
  %5 = load i8, ptr %4, align 8
  ret i8 %5
}

; Function Attrs: mustprogress nounwind uwtable
define dso_local noundef zeroext i1 @_ZNK4llvm23ItaniumPartialDemangler12isCtorOrDtorEv(ptr noundef nonnull align 8 dereferenceable(16) %0) #0 align 2 {
  %2 = alloca i1, align 1
  %3 = alloca ptr, align 8
  %4 = alloca ptr, align 8
  store ptr %0, ptr %3, align 8
  %5 = load ptr, ptr %3, align 8
  %6 = getelementptr inbounds nuw %"struct.llvm::ItaniumPartialDemangler", ptr %5, i32 0, i32 0
  %7 = load ptr, ptr %6, align 8
  store ptr %7, ptr %4, align 8
  br label %8

8:                                                ; preds = %40, %1
  %9 = load ptr, ptr %4, align 8
  %10 = icmp ne ptr %9, null
  br i1 %10, label %11, label %41

11:                                               ; preds = %8
  %12 = load ptr, ptr %4, align 8
  %13 = call noundef zeroext i8 @_ZNK4llvm16itanium_demangle4Node7getKindEv(ptr noundef nonnull align 8 dereferenceable(11) %12)
  %14 = zext i8 %13 to i32
  switch i32 %14, label %15 [
    i32 49, label %16
    i32 9, label %17
    i32 19, label %21
    i32 26, label %24
    i32 45, label %28
    i32 24, label %32
    i32 28, label %36
  ]

15:                                               ; preds = %11
  store i1 false, ptr %2, align 1
  br label %42

16:                                               ; preds = %11
  store i1 true, ptr %2, align 1
  br label %42

17:                                               ; preds = %11
  %18 = load ptr, ptr %4, align 8
  %19 = getelementptr inbounds nuw %"struct.llvm::itanium_demangle::AbiTagAttr", ptr %18, i32 0, i32 1
  %20 = load ptr, ptr %19, align 8
  store ptr %20, ptr %4, align 8
  br label %40

21:                                               ; preds = %11
  %22 = load ptr, ptr %4, align 8
  %23 = call noundef ptr @_ZNK4llvm16itanium_demangle16FunctionEncoding7getNameEv(ptr noundef nonnull align 8 dereferenceable(72) %22)
  store ptr %23, ptr %4, align 8
  br label %40

24:                                               ; preds = %11
  %25 = load ptr, ptr %4, align 8
  %26 = getelementptr inbounds nuw %"struct.llvm::itanium_demangle::LocalName", ptr %25, i32 0, i32 2
  %27 = load ptr, ptr %26, align 8
  store ptr %27, ptr %4, align 8
  br label %40

28:                                               ; preds = %11
  %29 = load ptr, ptr %4, align 8
  %30 = getelementptr inbounds nuw %"struct.llvm::itanium_demangle::NameWithTemplateArgs", ptr %29, i32 0, i32 1
  %31 = load ptr, ptr %30, align 8
  store ptr %31, ptr %4, align 8
  br label %40

32:                                               ; preds = %11
  %33 = load ptr, ptr %4, align 8
  %34 = getelementptr inbounds nuw %"struct.llvm::itanium_demangle::NestedName", ptr %33, i32 0, i32 2
  %35 = load ptr, ptr %34, align 8
  store ptr %35, ptr %4, align 8
  br label %40

36:                                               ; preds = %11
  %37 = load ptr, ptr %4, align 8
  %38 = getelementptr inbounds nuw %"struct.llvm::itanium_demangle::ModuleEntity", ptr %37, i32 0, i32 2
  %39 = load ptr, ptr %38, align 8
  store ptr %39, ptr %4, align 8
  br label %40

40:                                               ; preds = %36, %32, %28, %24, %21, %17
  br label %8, !llvm.loop !11

41:                                               ; preds = %8
  store i1 false, ptr %2, align 1
  br label %42

42:                                               ; preds = %41, %16, %15
  %43 = load i1, ptr %2, align 1
  ret i1 %43
}