; Function Attrs: mustprogress nofree norecurse nosync nounwind willreturn memory(read, inaccessiblemem: none) uwtable
define dso_local noundef zeroext i1 @_ZNK4llvm23ItaniumPartialDemangler12isCtorOrDtorEv(ptr nocapture noundef nonnull readonly align 8 dereferenceable(16) %0) local_unnamed_addr #6 align 2 {
  %.011 = load ptr, ptr %0, align 8
  %.not12 = icmp eq ptr %.011, null
  br i1 %.not12, label %.loopexit, label %.lr.ph

.lr.ph:                                           ; preds = %1, %8
  %.013 = phi ptr [ %.0, %8 ], [ %.011, %1 ]
  %2 = getelementptr inbounds nuw i8, ptr %.013, i64 8
  %3 = load i8, ptr %2, align 8
  switch i8 %3, label %.loopexit.loopexit [
    i8 49, label %.loopexit
    i8 9, label %8
    i8 19, label %4
    i8 26, label %5
    i8 45, label %8
    i8 24, label %6
    i8 28, label %7
  ]

4:                                                ; preds = %.lr.ph
  br label %8

5:                                                ; preds = %.lr.ph
  br label %8

6:                                                ; preds = %.lr.ph
  br label %8

7:                                                ; preds = %.lr.ph
  br label %8

8:                                                ; preds = %.lr.ph, %.lr.ph, %7, %6, %5, %4
  %.sink = phi i64 [ 24, %7 ], [ 24, %6 ], [ 24, %5 ], [ 24, %4 ], [ 16, %.lr.ph ], [ 16, %.lr.ph ]
  %9 = getelementptr inbounds nuw i8, ptr %.013, i64 %.sink
  %.0 = load ptr, ptr %9, align 8
  %.not = icmp eq ptr %.0, null
  br i1 %.not, label %.loopexit.loopexit, label %.lr.ph, !llvm.loop !12

.loopexit.loopexit:                               ; preds = %8, %.lr.ph
  br label %.loopexit

.loopexit:                                        ; preds = %.lr.ph, %.loopexit.loopexit, %1
  %.010 = phi i1 [ false, %1 ], [ false, %.loopexit.loopexit ], [ true, %.lr.ph ]
  ret i1 %.010
}